target datalayout = "e-m:e-p270:32:32-p271:32:32-p272:64:64-i64:64-i128:128-f80:128-n8:16:32:64-S128"
target triple = "x86_64-pc-linux-gnu"

%struct.jv = type { i8, i8, i16, i32, %union.anon }
%union.anon = type { ptr }
%struct.jv_refcnt = type { i32 }
%struct.jvp_array = type { %struct.jv_refcnt, i32, i32, [0 x %struct.jv] }

; Function Attrs: nounwind uwtable
define internal ptr @jvp_array_alloc(i32 noundef %0) #0 {
  %2 = alloca i32, align 4
  %3 = alloca ptr, align 8
  store i32 %0, ptr %2, align 4, !tbaa !10
  call void @llvm.lifetime.start.p0(i64 8, ptr %3) #11
  %4 = load i32, ptr %2, align 4, !tbaa !10
  %5 = zext i32 %4 to i64
  %6 = mul i64 16, %5
  %7 = add i64 16, %6
  %8 = call ptr @jv_mem_alloc(i64 noundef %7)
  store ptr %8, ptr %3, align 8, !tbaa !14
  %9 = load ptr, ptr %3, align 8, !tbaa !14
  %10 = getelementptr inbounds nuw %struct.jvp_array, ptr %9, i32 0, i32 0
  %11 = getelementptr inbounds nuw %struct.jv_refcnt, ptr %10, i32 0, i32 0
  store i32 1, ptr %11, align 8, !tbaa !68
  %12 = load ptr, ptr %3, align 8, !tbaa !14
  %13 = getelementptr inbounds nuw %struct.jvp_array, ptr %12, i32 0, i32 1
  store i32 0, ptr %13, align 4, !tbaa !10
  %14 = load i32, ptr %2, align 4, !tbaa !10
  %15 = load ptr, ptr %3, align 8, !tbaa !14
  %16 = getelementptr inbounds nuw %struct.jvp_array, ptr %15, i32 0, i32 2
  store i32 %14, ptr %16, align 8, !tbaa !10
  %17 = load ptr, ptr %3, align 8, !tbaa !14
  call void @llvm.lifetime.end.p0(i64 8, ptr %3) #11
  ret ptr %17
}

; Function Attrs: nounwind uwtable
define internal { i64, ptr } @jvp_array_new(i32 noundef %0) #0 {
  %2 = alloca %struct.jv, align 8
  %3 = alloca i32, align 4
  store i32 %0, ptr %3, align 4, !tbaa !10
  %4 = getelementptr inbounds nuw %struct.jv, ptr %2, i32 0, i32 0
  store i8 -122, ptr %4, align 8, !tbaa !4
  %5 = getelementptr inbounds nuw %struct.jv, ptr %2, i32 0, i32 1
  store i8 0, ptr %5, align 1, !tbaa !17
  %6 = getelementptr inbounds nuw %struct.jv, ptr %2, i32 0, i32 2
  store i16 0, ptr %6, align 2, !tbaa !18
  %7 = getelementptr inbounds nuw %struct.jv, ptr %2, i32 0, i32 3
  store i32 0, ptr %7, align 4, !tbaa !19
  %8 = getelementptr inbounds nuw %struct.jv, ptr %2, i32 0, i32 4
  %9 = load i32, ptr %3, align 4, !tbaa !10
  %10 = call ptr @jvp_array_alloc(i32 noundef %9)
  %11 = getelementptr inbounds nuw %struct.jvp_array, ptr %10, i32 0, i32 0
  store ptr %11, ptr %8, align 8, !tbaa !12
  %12 = load { i64, ptr }, ptr %2, align 8
  ret { i64, ptr } %12
}

; Function Attrs: nounwind uwtable
define dso_local { i64, ptr } @jv_array_sized(i32 noundef %0) #0 {
  %2 = alloca %struct.jv, align 8
  %3 = alloca i32, align 4
  store i32 %0, ptr %3, align 4, !tbaa !10
  %4 = load i32, ptr %3, align 4, !tbaa !10
  %5 = call { i64, ptr } @jvp_array_new(i32 noundef %4)
  %6 = getelementptr inbounds nuw { i64, ptr }, ptr %2, i32 0, i32 0
  %7 = extractvalue { i64, ptr } %5, 0
  store i64 %7, ptr %6, align 8
  %8 = getelementptr inbounds nuw { i64, ptr }, ptr %2, i32 0, i32 1
  %9 = extractvalue { i64, ptr } %5, 1
  store ptr %9, ptr %8, align 8
  %10 = load { i64, ptr }, ptr %2, align 8
  ret { i64, ptr } %10
}