; Function Attrs: nounwind uwtable
define dso_local { i64, ptr } @jv_array_sized(i32 noundef %0) local_unnamed_addr #2 {
  %2 = zext i32 %0 to i64
  %3 = shl nuw nsw i64 %2, 4
  %4 = add nuw nsw i64 %3, 16
  %5 = tail call ptr @jv_mem_alloc(i64 noundef %4) #25
  store i32 1, ptr %5, align 8, !tbaa !9
  %6 = getelementptr inbounds nuw i8, ptr %5, i64 4
  store i32 0, ptr %6, align 4, !tbaa !4
  %7 = getelementptr inbounds nuw i8, ptr %5, i64 8
  store i32 %0, ptr %7, align 8, !tbaa !4
  %.fca.1.insert.i = insertvalue { i64, ptr } { i64 134, ptr poison }, ptr %5, 1
  ret { i64, ptr } %.fca.1.insert.i
}